	.file	"sbi_main.c"
	.option nopic
	.attribute arch, "rv64i2p1_m2p0_a2p1_f2p2_d2p2_zicsr2p0"
	.attribute unaligned_access, 0
	.attribute stack_align, 16
	.text
.Ltext0:
	.file 0 "/home/chen/Workspace/riscv/stacktraceHW" "sbi/sbi_main.c"
	.section	.rodata
	.align	3
.LC0:
	.ascii	"\t                                            ___   ___\n   "
	.ascii	" //   ) )               "
	.string	"     //   ) )  //   ) )    / /\n   //___/ /   ___       __     ((        //___/ /    / /\n  / __  (   //___) ) //   ) )    \\      / __  (     / /\n //    ) ) //       //   / /       ) ) //    ) )   / /\n//____/ / ((____   //   / / ((___ / / //____/ / __/ /___\n"
	.text
	.align	2
	.globl	sbi_main
	.type	sbi_main, @function
sbi_main:
.LFB0:
	.file 1 "sbi/sbi_main.c"
	.loc 1 22 1
	.cfi_startproc
	addi	sp,sp,-64
	.cfi_def_cfa_offset 64
	sd	ra,56(sp)
	sd	s0,48(sp)
	.cfi_offset 1, -8
	.cfi_offset 8, -16
	addi	s0,sp,64
	.cfi_def_cfa 8, 0
	.loc 1 25 2
	call	uart_init
	.loc 1 27 2
	lla	a0,putchar
	call	init_printk_done
	.loc 1 28 2
	lla	a0,.LC0
	call	printk
	.loc 1 30 2
	call	sbi_trap_init
.LBB2:
	.loc 1 33 39
#APP
# 33 "sbi/sbi_main.c" 1
	csrr a5, mstatus
# 0 "" 2
#NO_APP
	mv	ra,a5
	.loc 1 33 111
	mv	a5,ra
.LBE2:
	.loc 1 33 6
	sd	a5,-24(s0)
	.loc 1 34 16
	ld	a4,-24(s0)
	li	a5,-8192
	addi	a5,a5,2047
	and	a4,a4,a5
	.loc 1 34 6
	li	a5,4096
	addi	a5,a5,-2048
	or	a5,a4,a5
	sd	a5,-24(s0)
	.loc 1 35 6
	ld	a5,-24(s0)
	andi	a5,a5,-129
	sd	a5,-24(s0)
.LBB3:
	.loc 1 36 19
	ld	a5,-24(s0)
	sd	a5,-32(s0)
	.loc 1 36 47
	ld	a5,-32(s0)
#APP
# 36 "sbi/sbi_main.c" 1
	csrw mstatus, a5
# 0 "" 2
#NO_APP
.LBE3:
	.loc 1 38 2
	call	delegate_traps
.LBB4:
	.loc 1 41 19
	li	a5,1025
	slli	a5,a5,21
	sd	a5,-40(s0)
	.loc 1 41 54
	ld	a5,-40(s0)
#APP
# 41 "sbi/sbi_main.c" 1
	csrw mepc, a5
# 0 "" 2
#NO_APP
.LBE4:
.LBB5:
	.loc 1 43 19
	li	a5,1025
	slli	a5,a5,21
	sd	a5,-48(s0)
	.loc 1 43 54
	ld	a5,-48(s0)
#APP
# 43 "sbi/sbi_main.c" 1
	csrw stvec, a5
# 0 "" 2
#NO_APP
.LBE5:
.LBB6:
	.loc 1 45 19
	sd	zero,-56(s0)
	.loc 1 45 45
	ld	a5,-56(s0)
#APP
# 45 "sbi/sbi_main.c" 1
	csrw sie, a5
# 0 "" 2
#NO_APP
.LBE6:
.LBB7:
	.loc 1 47 19
	sd	zero,-64(s0)
	.loc 1 47 45
	ld	a5,-64(s0)
#APP
# 47 "sbi/sbi_main.c" 1
	csrw satp, a5
# 0 "" 2
#NO_APP
.LBE7:
	.loc 1 50 2
#APP
# 50 "sbi/sbi_main.c" 1
	mret
# 0 "" 2
	.loc 1 51 1
#NO_APP
	nop
	ld	ra,56(sp)
	.cfi_restore 1
	ld	s0,48(sp)
	.cfi_restore 8
	.cfi_def_cfa 2, 64
	addi	sp,sp,64
	.cfi_def_cfa_offset 0
	jr	ra
	.cfi_endproc
.LFE0:
	.size	sbi_main, .-sbi_main
.Letext0:
	.file 2 "include/uart.h"
	.file 3 "include/printk.h"
	.file 4 "sbi/sbi_trap.h"
	.section	.note.GNU-stack,"",@progbits
