	.file	"sbi_trap.c"
	.option nopic
	.attribute arch, "rv64i2p1_m2p0_a2p1_f2p2_d2p2_zicsr2p0"
	.attribute unaligned_access, 0
	.attribute stack_align, 16
	.text
.Ltext0:
	.file 0 "/home/chen/Workspace/riscv/stacktraceHW" "sbi/sbi_trap.c"
	.section	.rodata
	.align	3
.LC0:
	.string	"sbi panic\n"
	.text
	.align	2
	.globl	sbi_panic
	.type	sbi_panic, @function
sbi_panic:
.LFB3:
	.file 1 "sbi/sbi_trap.c"
	.loc 1 10 1
	.cfi_startproc
	addi	sp,sp,-16
	.cfi_def_cfa_offset 16
	sd	ra,8(sp)
	sd	s0,0(sp)
	.cfi_offset 1, -8
	.cfi_offset 8, -16
	addi	s0,sp,16
	.cfi_def_cfa 8, 0
	.loc 1 11 2
	lla	a0,.LC0
	call	printk
.L2:
	.loc 1 12 7
	nop
	j	.L2
	.cfi_endproc
.LFE3:
	.size	sbi_panic, .-sbi_panic
	.section	.rodata
	.align	3
.LC1:
	.string	"%s: %s (error %d)\n"
	.align	3
.LC2:
	.string	"mcause: %016lx  mtval: %016lx \n"
	.align	3
.LC3:
	.string	"mepc: %016lx mstatus : %016lx\n"
	.align	3
.LC4:
	.string	" gp : %016lx tp : %016lx t0 : %016lx\n"
	.align	3
.LC5:
	.string	" t1 : %016lx t2 : %016lx t3 : %016lx\n"
	.align	3
.LC6:
	.string	" s1 : %016lx a0 : %016lx a1 : %016lx\n"
	.align	3
.LC7:
	.string	" a2 : %016lx a3 : %016lx a4 : %016lx\n"
	.align	3
.LC8:
	.string	" a5 : %016lx a6 : %016lx a7 : %016lx\n"
	.align	3
.LC9:
	.string	" s2 : %016lx s3 : %016lx s4 : %016lx\n"
	.align	3
.LC10:
	.string	" s5 : %016lx s6 : %016lx s7 : %016lx\n"
	.align	3
.LC11:
	.string	" s8 : %016lx s9 : %016lx s10: %016lx\n"
	.align	3
.LC12:
	.string	" s11: %016lx t3 : %016lx t4: %016lx\n"
	.align	3
.LC13:
	.string	" t5 : %016lx t6 : %016lx sp: %016lx\n"
	.align	3
.LC14:
	.string	" ra: %016lx\n"
	.text
	.align	2
	.type	sbi_trap_error, @function
sbi_trap_error:
.LFB4:
	.loc 1 17 1
	.cfi_startproc
	addi	sp,sp,-48
	.cfi_def_cfa_offset 48
	sd	ra,40(sp)
	sd	s0,32(sp)
	.cfi_offset 1, -8
	.cfi_offset 8, -16
	addi	s0,sp,48
	.cfi_def_cfa 8, 0
	sd	a0,-24(s0)
	sd	a1,-32(s0)
	mv	a5,a2
	sw	a5,-36(s0)
	.loc 1 18 2
	lw	a5,-36(s0)
	mv	a3,a5
	ld	a2,-32(s0)
	lla	a1,__func__.0
	lla	a0,.LC1
	call	printk
.LBB2:
	.loc 1 20 37
#APP
# 20 "sbi/sbi_trap.c" 1
	csrr a5, mcause
# 0 "" 2
#NO_APP
	mv	ra,a5
	.loc 1 20 108
	mv	a4,ra
.LBE2:
.LBB3:
	.loc 1 20 148
#APP
# 20 "sbi/sbi_trap.c" 1
	csrr a5, mtval
# 0 "" 2
#NO_APP
	mv	ra,a5
	.loc 1 20 218
	mv	a5,ra
.LBE3:
	.loc 1 19 2
	mv	a2,a5
	mv	a1,a4
	lla	a0,.LC2
	call	printk
	.loc 1 22 2
	ld	a5,-24(s0)
	ld	a4,0(a5)
	ld	a5,-24(s0)
	ld	a5,256(a5)
	mv	a2,a5
	mv	a1,a4
	lla	a0,.LC3
	call	printk
	.loc 1 24 2
	ld	a5,-24(s0)
	ld	a4,24(a5)
	ld	a5,-24(s0)
	ld	a2,32(a5)
	ld	a5,-24(s0)
	ld	a5,40(a5)
	mv	a3,a5
	mv	a1,a4
	lla	a0,.LC4
	call	printk
	.loc 1 26 2
	ld	a5,-24(s0)
	ld	a4,48(a5)
	ld	a5,-24(s0)
	ld	a2,56(a5)
	ld	a5,-24(s0)
	ld	a5,64(a5)
	mv	a3,a5
	mv	a1,a4
	lla	a0,.LC5
	call	printk
	.loc 1 28 2
	ld	a5,-24(s0)
	ld	a4,72(a5)
	ld	a5,-24(s0)
	ld	a2,80(a5)
	ld	a5,-24(s0)
	ld	a5,88(a5)
	mv	a3,a5
	mv	a1,a4
	lla	a0,.LC6
	call	printk
	.loc 1 30 2
	ld	a5,-24(s0)
	ld	a4,96(a5)
	ld	a5,-24(s0)
	ld	a2,104(a5)
	ld	a5,-24(s0)
	ld	a5,112(a5)
	mv	a3,a5
	mv	a1,a4
	lla	a0,.LC7
	call	printk
	.loc 1 32 2
	ld	a5,-24(s0)
	ld	a4,120(a5)
	ld	a5,-24(s0)
	ld	a2,128(a5)
	ld	a5,-24(s0)
	ld	a5,136(a5)
	mv	a3,a5
	mv	a1,a4
	lla	a0,.LC8
	call	printk
	.loc 1 34 2
	ld	a5,-24(s0)
	ld	a4,144(a5)
	ld	a5,-24(s0)
	ld	a2,152(a5)
	ld	a5,-24(s0)
	ld	a5,160(a5)
	mv	a3,a5
	mv	a1,a4
	lla	a0,.LC9
	call	printk
	.loc 1 36 2
	ld	a5,-24(s0)
	ld	a4,168(a5)
	ld	a5,-24(s0)
	ld	a2,176(a5)
	ld	a5,-24(s0)
	ld	a5,184(a5)
	mv	a3,a5
	mv	a1,a4
	lla	a0,.LC10
	call	printk
	.loc 1 38 2
	ld	a5,-24(s0)
	ld	a4,192(a5)
	ld	a5,-24(s0)
	ld	a2,200(a5)
	ld	a5,-24(s0)
	ld	a5,208(a5)
	mv	a3,a5
	mv	a1,a4
	lla	a0,.LC11
	call	printk
	.loc 1 40 2
	ld	a5,-24(s0)
	ld	a4,216(a5)
	ld	a5,-24(s0)
	ld	a2,224(a5)
	ld	a5,-24(s0)
	ld	a5,232(a5)
	mv	a3,a5
	mv	a1,a4
	lla	a0,.LC12
	call	printk
	.loc 1 42 2
	ld	a5,-24(s0)
	ld	a4,240(a5)
	ld	a5,-24(s0)
	ld	a2,248(a5)
	ld	a5,-24(s0)
	ld	a5,16(a5)
	mv	a3,a5
	mv	a1,a4
	lla	a0,.LC13
	call	printk
	.loc 1 44 2
	ld	a5,-24(s0)
	ld	a5,8(a5)
	mv	a1,a5
	lla	a0,.LC14
	call	printk
	.loc 1 47 2
	call	sbi_panic
	.loc 1 48 1
	nop
	ld	ra,40(sp)
	.cfi_restore 1
	ld	s0,32(sp)
	.cfi_restore 8
	.cfi_def_cfa 2, 48
	addi	sp,sp,48
	.cfi_def_cfa_offset 0
	jr	ra
	.cfi_endproc
.LFE4:
	.size	sbi_trap_error, .-sbi_trap_error
	.align	2
	.type	sbi_ecall_handle, @function
sbi_ecall_handle:
.LFB5:
	.loc 1 51 1
	.cfi_startproc
	addi	sp,sp,-48
	.cfi_def_cfa_offset 48
	sd	ra,40(sp)
	sd	s0,32(sp)
	.cfi_offset 1, -8
	.cfi_offset 8, -16
	addi	s0,sp,48
	.cfi_def_cfa 8, 0
	mv	a5,a0
	sd	a1,-48(s0)
	sw	a5,-36(s0)
	.loc 1 52 6
	sw	zero,-20(s0)
	.loc 1 54 2
	lw	a5,-36(s0)
	sext.w	a4,a5
	li	a5,1
	bne	a4,a5,.L5
	.loc 1 56 15
	ld	a5,-48(s0)
	ld	a5,80(a5)
	.loc 1 56 3
	andi	a5,a5,0xff
	mv	a0,a5
	call	putchar
	.loc 1 57 7
	sw	zero,-20(s0)
	.loc 1 58 3
	nop
.L5:
	.loc 1 62 5
	lw	a5,-20(s0)
	sext.w	a5,a5
	bne	a5,zero,.L6
	.loc 1 63 7
	ld	a5,-48(s0)
	ld	a5,0(a5)
	.loc 1 63 14
	addi	a4,a5,4
	ld	a5,-48(s0)
	sd	a4,0(a5)
.L6:
	.loc 1 65 9
	lw	a5,-20(s0)
	.loc 1 66 1
	mv	a0,a5
	ld	ra,40(sp)
	.cfi_restore 1
	ld	s0,32(sp)
	.cfi_restore 8
	.cfi_def_cfa 2, 48
	addi	sp,sp,48
	.cfi_def_cfa_offset 0
	jr	ra
	.cfi_endproc
.LFE5:
	.size	sbi_ecall_handle, .-sbi_ecall_handle
	.section	.rodata
	.align	3
.LC15:
	.string	"trap handler failed"
	.align	3
.LC16:
	.string	"ecall handler failed"
	.align	3
.LC17:
	.string	"load store access failed"
	.text
	.align	2
	.globl	sbi_trap_handler
	.type	sbi_trap_handler, @function
sbi_trap_handler:
.LFB6:
	.loc 1 69 1
	.cfi_startproc
	addi	sp,sp,-80
	.cfi_def_cfa_offset 80
	sd	ra,72(sp)
	sd	s0,64(sp)
	sd	s1,56(sp)
	.cfi_offset 1, -8
	.cfi_offset 8, -16
	.cfi_offset 9, -24
	addi	s0,sp,80
	.cfi_def_cfa 8, 0
	sd	a0,-72(s0)
.LBB4:
	.loc 1 70 56
#APP
# 70 "sbi/sbi_trap.c" 1
	csrr a5, mcause
# 0 "" 2
#NO_APP
	mv	s1,a5
	.loc 1 70 127
	mv	a5,s1
.LBE4:
	.loc 1 70 16
	sd	a5,-56(s0)
	.loc 1 71 16
	ld	a5,-72(s0)
	ld	a5,136(a5)
	sd	a5,-64(s0)
	.loc 1 72 6
	li	a5,-5
	sw	a5,-36(s0)
	.loc 1 73 14
	lla	a5,.LC15
	sd	a5,-48(s0)
	.loc 1 75 2
	ld	a4,-56(s0)
	li	a5,9
	beq	a4,a5,.L9
	ld	a4,-56(s0)
	li	a5,9
	bgtu	a4,a5,.L14
	ld	a4,-56(s0)
	li	a5,5
	beq	a4,a5,.L11
	ld	a4,-56(s0)
	li	a5,7
	beq	a4,a5,.L11
	.loc 1 85 3
	j	.L14
.L9:
	.loc 1 77 8
	ld	a5,-64(s0)
	sext.w	a5,a5
	ld	a1,-72(s0)
	mv	a0,a5
	call	sbi_ecall_handle
	mv	a5,a0
	sw	a5,-36(s0)
	.loc 1 78 7
	lla	a5,.LC16
	sd	a5,-48(s0)
	.loc 1 79 3
	j	.L12
.L11:
	.loc 1 82 7
	lla	a5,.LC17
	sd	a5,-48(s0)
	.loc 1 83 3
	j	.L12
.L14:
	.loc 1 85 3
	nop
.L12:
	.loc 1 88 5
	lw	a5,-36(s0)
	sext.w	a5,a5
	beq	a5,zero,.L15
	.loc 1 89 3
	lw	a5,-36(s0)
	mv	a2,a5
	ld	a1,-48(s0)
	ld	a0,-72(s0)
	call	sbi_trap_error
.L15:
	.loc 1 91 1
	nop
	ld	ra,72(sp)
	.cfi_restore 1
	ld	s0,64(sp)
	.cfi_restore 8
	.cfi_def_cfa 2, 80
	ld	s1,56(sp)
	.cfi_restore 9
	addi	sp,sp,80
	.cfi_def_cfa_offset 0
	jr	ra
	.cfi_endproc
.LFE6:
	.size	sbi_trap_handler, .-sbi_trap_handler
	.align	2
	.globl	delegate_traps
	.type	delegate_traps, @function
delegate_traps:
.LFB7:
	.loc 1 94 1
	.cfi_startproc
	addi	sp,sp,-48
	.cfi_def_cfa_offset 48
	sd	s0,40(sp)
	.cfi_offset 8, -8
	addi	s0,sp,48
	.cfi_def_cfa 8, 0
	.loc 1 98 13
	li	a5,546
	sd	a5,-24(s0)
	.loc 1 99 13
	li	a5,45056
	addi	a5,a5,425
	sd	a5,-32(s0)
.LBB5:
	.loc 1 104 20
	ld	a5,-24(s0)
	sd	a5,-40(s0)
	.loc 1 104 55
	ld	a5,-40(s0)
#APP
# 104 "sbi/sbi_trap.c" 1
	csrw mideleg, a5
# 0 "" 2
#NO_APP
.LBE5:
.LBB6:
	.loc 1 105 20
	ld	a5,-32(s0)
	sd	a5,-48(s0)
	.loc 1 105 55
	ld	a5,-48(s0)
#APP
# 105 "sbi/sbi_trap.c" 1
	csrw medeleg, a5
# 0 "" 2
#NO_APP
.LBE6:
	.loc 1 106 1
	nop
	ld	s0,40(sp)
	.cfi_restore 8
	.cfi_def_cfa 2, 48
	addi	sp,sp,48
	.cfi_def_cfa_offset 0
	jr	ra
	.cfi_endproc
.LFE7:
	.size	delegate_traps, .-delegate_traps
	.align	2
	.globl	sbi_trap_init
	.type	sbi_trap_init, @function
sbi_trap_init:
.LFB8:
	.loc 1 111 1
	.cfi_startproc
	addi	sp,sp,-32
	.cfi_def_cfa_offset 32
	sd	s0,24(sp)
	.cfi_offset 8, -8
	addi	s0,sp,32
	.cfi_def_cfa 8, 0
.LBB7:
	.loc 1 113 19
	lla	a5,sbi_exception_vector
	sd	a5,-24(s0)
	.loc 1 113 64
	ld	a5,-24(s0)
#APP
# 113 "sbi/sbi_trap.c" 1
	csrw mtvec, a5
# 0 "" 2
#NO_APP
.LBE7:
.LBB8:
	.loc 1 115 19
	sd	zero,-32(s0)
	.loc 1 115 45
	ld	a5,-32(s0)
#APP
# 115 "sbi/sbi_trap.c" 1
	csrw mie, a5
# 0 "" 2
#NO_APP
.LBE8:
	.loc 1 116 1
	nop
	ld	s0,24(sp)
	.cfi_restore 8
	.cfi_def_cfa 2, 32
	addi	sp,sp,32
	.cfi_def_cfa_offset 0
	jr	ra
	.cfi_endproc
.LFE8:
	.size	sbi_trap_init, .-sbi_trap_init
	.section	.rodata
	.align	3
	.type	__func__.0, @object
	.size	__func__.0, 15
__func__.0:
	.string	"sbi_trap_error"
	.text
.Letext0:
	.file 2 "sbi/sbi_trap_regs.h"
	.file 3 "include/uart.h"
	.file 4 "include/printk.h"
	.section	.note.GNU-stack,"",@progbits
