	.file	"kernel.c"
	.option nopic
	.attribute arch, "rv64i2p1_m2p0_a2p1_f2p2_d2p2_zicsr2p0"
	.attribute unaligned_access, 0
	.attribute stack_align, 16
	.text
.Ltext0:
	.file 0 "/home/chen/Workspace/riscv/stacktraceHW" "src/kernel.c"
	.align	2
	.type	sbi_putchar, @function
sbi_putchar:
.LFB2:
	.file 1 "include/asm/sbi.h"
	.loc 1 37 1
	.cfi_startproc
	addi	sp,sp,-32
	.cfi_def_cfa_offset 32
	sd	s0,24(sp)
	.cfi_offset 8, -8
	addi	s0,sp,32
	.cfi_def_cfa 8, 0
	mv	a5,a0
	sb	a5,-17(s0)
.LBB2:
	.loc 1 38 44
	lbu	a5,-17(s0)
	.loc 1 38 28
	mv	a0,a5
	.loc 1 38 87
	li	a1,0
	.loc 1 38 146
	li	a2,0
	.loc 1 38 205
	li	a7,1
	.loc 1 38 243
#APP
# 38 "include/asm/sbi.h" 1
	ecall
# 0 "" 2
#NO_APP
.LBE2:
	.loc 1 39 1
	nop
	ld	s0,24(sp)
	.cfi_restore 8
	.cfi_def_cfa 2, 32
	addi	sp,sp,32
	.cfi_def_cfa_offset 0
	jr	ra
	.cfi_endproc
.LFE2:
	.size	sbi_putchar, .-sbi_putchar
	.align	2
	.type	trigger_access_fault, @function
trigger_access_fault:
.LFB4:
	.file 2 "src/kernel.c"
	.loc 2 13 1
	.cfi_startproc
	addi	sp,sp,-16
	.cfi_def_cfa_offset 16
	sd	ra,8(sp)
	sd	s0,0(sp)
	.cfi_offset 1, -8
	.cfi_offset 8, -16
	addi	s0,sp,16
	.cfi_def_cfa 8, 0
	.loc 2 14 5
	call	trigger_load_access_fault
	.loc 2 15 1
	nop
	ld	ra,8(sp)
	.cfi_restore 1
	ld	s0,0(sp)
	.cfi_restore 8
	.cfi_def_cfa 2, 16
	addi	sp,sp,16
	.cfi_def_cfa_offset 0
	jr	ra
	.cfi_endproc
.LFE4:
	.size	trigger_access_fault, .-trigger_access_fault
	.align	2
	.type	test_fault, @function
test_fault:
.LFB5:
	.loc 2 17 1
	.cfi_startproc
	addi	sp,sp,-16
	.cfi_def_cfa_offset 16
	sd	ra,8(sp)
	sd	s0,0(sp)
	.cfi_offset 1, -8
	.cfi_offset 8, -16
	addi	s0,sp,16
	.cfi_def_cfa 8, 0
	.loc 2 18 5
	call	trigger_access_fault
	.loc 2 19 1
	nop
	ld	ra,8(sp)
	.cfi_restore 1
	ld	s0,0(sp)
	.cfi_restore 8
	.cfi_def_cfa 2, 16
	addi	sp,sp,16
	.cfi_def_cfa_offset 0
	jr	ra
	.cfi_endproc
.LFE5:
	.size	test_fault, .-test_fault
	.section	.rodata
	.align	3
.LC0:
	.string	"[func_level3] called with a=%d, b=%d, c=%d\n"
	.text
	.align	2
	.type	func_level3, @function
func_level3:
.LFB6:
	.loc 2 21 1
	.cfi_startproc
	addi	sp,sp,-32
	.cfi_def_cfa_offset 32
	sd	ra,24(sp)
	sd	s0,16(sp)
	.cfi_offset 1, -8
	.cfi_offset 8, -16
	addi	s0,sp,32
	.cfi_def_cfa 8, 0
	mv	a5,a0
	mv	a3,a1
	mv	a4,a2
	sw	a5,-20(s0)
	mv	a5,a3
	sw	a5,-24(s0)
	mv	a5,a4
	sw	a5,-28(s0)
	.loc 2 22 5
	lw	a3,-28(s0)
	lw	a4,-24(s0)
	lw	a5,-20(s0)
	mv	a2,a4
	mv	a1,a5
	lla	a0,.LC0
	call	printk
	.loc 2 23 5
	call	dump_stack
	.loc 2 24 14
	lw	a5,-20(s0)
	mv	a4,a5
	lw	a5,-24(s0)
	addw	a5,a4,a5
	sext.w	a5,a5
	.loc 2 24 18
	lw	a4,-28(s0)
	addw	a5,a4,a5
	sext.w	a5,a5
	.loc 2 25 1
	mv	a0,a5
	ld	ra,24(sp)
	.cfi_restore 1
	ld	s0,16(sp)
	.cfi_restore 8
	.cfi_def_cfa 2, 32
	addi	sp,sp,32
	.cfi_def_cfa_offset 0
	jr	ra
	.cfi_endproc
.LFE6:
	.size	func_level3, .-func_level3
	.section	.rodata
	.align	3
.LC1:
	.string	"[func_level2] calling func_level3\n"
	.text
	.align	2
	.type	func_level2, @function
func_level2:
.LFB7:
	.loc 2 28 1
	.cfi_startproc
	addi	sp,sp,-32
	.cfi_def_cfa_offset 32
	sd	ra,24(sp)
	sd	s0,16(sp)
	.cfi_offset 1, -8
	.cfi_offset 8, -16
	addi	s0,sp,32
	.cfi_def_cfa 8, 0
	mv	a5,a0
	mv	a4,a1
	sw	a5,-20(s0)
	mv	a5,a4
	sw	a5,-24(s0)
	.loc 2 29 5
	lla	a0,.LC1
	call	printk
	.loc 2 30 12
	lw	a5,-20(s0)
	mv	a4,a5
	lw	a5,-24(s0)
	addw	a5,a4,a5
	sext.w	a3,a5
	lw	a4,-24(s0)
	lw	a5,-20(s0)
	mv	a2,a3
	mv	a1,a4
	mv	a0,a5
	call	func_level3
	mv	a5,a0
	.loc 2 31 1
	mv	a0,a5
	ld	ra,24(sp)
	.cfi_restore 1
	ld	s0,16(sp)
	.cfi_restore 8
	.cfi_def_cfa 2, 32
	addi	sp,sp,32
	.cfi_def_cfa_offset 0
	jr	ra
	.cfi_endproc
.LFE7:
	.size	func_level2, .-func_level2
	.section	.rodata
	.align	3
.LC2:
	.string	"[func_level1] calling func_level2\n"
	.text
	.align	2
	.type	func_level1, @function
func_level1:
.LFB8:
	.loc 2 34 1
	.cfi_startproc
	addi	sp,sp,-16
	.cfi_def_cfa_offset 16
	sd	ra,8(sp)
	sd	s0,0(sp)
	.cfi_offset 1, -8
	.cfi_offset 8, -16
	addi	s0,sp,16
	.cfi_def_cfa 8, 0
	.loc 2 35 5
	lla	a0,.LC2
	call	printk
	.loc 2 36 12
	li	a1,5
	li	a0,3
	call	func_level2
	mv	a5,a0
	.loc 2 37 1
	mv	a0,a5
	ld	ra,8(sp)
	.cfi_restore 1
	ld	s0,0(sp)
	.cfi_restore 8
	.cfi_def_cfa 2, 16
	addi	sp,sp,16
	.cfi_def_cfa_offset 0
	jr	ra
	.cfi_endproc
.LFE8:
	.size	func_level1, .-func_level1
	.align	2
	.globl	uart_get
	.type	uart_get, @function
uart_get:
.LFB9:
	.loc 2 40 1
	.cfi_startproc
	addi	sp,sp,-32
	.cfi_def_cfa_offset 32
	sd	s0,24(sp)
	.cfi_offset 8, -8
	addi	s0,sp,32
	.cfi_def_cfa 8, 0
.LBB3:
	.loc 2 41 30
	li	a5,268435456
	addi	a5,a5,5
	.loc 2 41 23
	lbu	a5,0(a5)
	sb	a5,-17(s0)
	.loc 2 41 80
	.loc 2 41 122
	lbu	a5,-17(s0)
.LBE3:
	.loc 2 41 130
	sext.w	a5,a5
	andi	a5,a5,1
	sext.w	a5,a5
	.loc 2 41 5
	beq	a5,zero,.L11
.LBB4:
	.loc 2 42 34
	li	a5,268435456
	.loc 2 42 27
	lbu	a5,0(a5)
	sb	a5,-18(s0)
	.loc 2 42 84
	.loc 2 42 126
	lbu	a5,-18(s0)
.LBE4:
	.loc 2 42 11
	j	.L12
.L11:
	.loc 2 44 10
	li	a5,255
.L12:
	.loc 2 45 1
	mv	a0,a5
	ld	s0,24(sp)
	.cfi_restore 8
	.cfi_def_cfa 2, 32
	addi	sp,sp,32
	.cfi_def_cfa_offset 0
	jr	ra
	.cfi_endproc
.LFE9:
	.size	uart_get, .-uart_get
	.section	.rodata
	.align	3
.LC3:
	.string	"Init done\n"
	.align	3
.LC4:
	.string	"[kernel_main] func_level1 result = %d\n"
	.text
	.align	2
	.globl	kernel_main
	.type	kernel_main, @function
kernel_main:
.LFB10:
	.loc 2 47 1
	.cfi_startproc
	addi	sp,sp,-32
	.cfi_def_cfa_offset 32
	sd	ra,24(sp)
	sd	s0,16(sp)
	.cfi_offset 1, -8
	.cfi_offset 8, -16
	addi	s0,sp,32
	.cfi_def_cfa 8, 0
	.loc 2 48 5
	lla	a0,sbi_putchar
	call	init_printk_done
	.loc 2 50 5
	call	trap_init
	.loc 2 51 5
	lla	a0,.LC3
	call	printk
	.loc 2 53 13
	call	func_level1
	mv	a5,a0
	sw	a5,-24(s0)
	.loc 2 54 5
	lw	a5,-24(s0)
	mv	a1,a5
	lla	a0,.LC4
	call	printk
	.loc 2 56 9
	li	a5,-1
	sw	a5,-20(s0)
	.loc 2 57 11
	j	.L14
.L15:
	.loc 2 58 20
	call	uart_get
	mv	a5,a0
	.loc 2 58 18 discriminator 1
	sw	a5,-20(s0)
.L14:
	.loc 2 57 21
	lw	a5,-20(s0)
	sext.w	a4,a5
	li	a5,52
	bne	a4,a5,.L15
	.loc 2 61 5
	call	test_fault
.L16:
	.loc 2 63 11
	nop
	j	.L16
	.cfi_endproc
.LFE10:
	.size	kernel_main, .-kernel_main
.Letext0:
	.file 3 "include/printk.h"
	.section	.note.GNU-stack,"",@progbits
