	.file	"trap.c"
	.option nopic
	.text
.Ltext0:
	.cfi_sections	.debug_frame
	.section	.rodata
	.align	3
.LC0:
	.string	"Kernel panic\n"
	.text
	.align	2
	.globl	panic
	.type	panic, @function
panic:
.LFB1:
	.file 1 "src/trap.c"
	.loc 1 15 1
	.cfi_startproc
	addi	sp,sp,-16
	.cfi_def_cfa_offset 16
	sd	ra,8(sp)
	sd	s0,0(sp)
	.cfi_offset 1, -8
	.cfi_offset 8, -16
	addi	s0,sp,16
	.cfi_def_cfa 8, 0
	.loc 1 16 2
	lla	a0,.LC0
	call	printk
.L2:
	.loc 1 17 7 discriminator 1
	j	.L2
	.cfi_endproc
.LFE1:
	.size	panic, .-panic
	.section	.rodata
	.align	3
.LC1:
	.string	"sepc: %016lx ra : %016lx sp : %016lx\n"
	.align	3
.LC2:
	.string	" gp : %016lx tp : %016lx t0 : %016lx\n"
	.align	3
.LC3:
	.string	" t1 : %016lx t2 : %016lx t3 : %016lx\n"
	.align	3
.LC4:
	.string	" s1 : %016lx a0 : %016lx a1 : %016lx\n"
	.align	3
.LC5:
	.string	" a2 : %016lx a3 : %016lx a4 : %016lx\n"
	.align	3
.LC6:
	.string	" a5 : %016lx a6 : %016lx a7 : %016lx\n"
	.align	3
.LC7:
	.string	" s2 : %016lx s3 : %016lx s4 : %016lx\n"
	.align	3
.LC8:
	.string	" s5 : %016lx s6 : %016lx s7 : %016lx\n"
	.align	3
.LC9:
	.string	" s8 : %016lx s9 : %016lx s10: %016lx\n"
	.align	3
.LC10:
	.string	" s11: %016lx t3 : %016lx t4: %016lx\n"
	.align	3
.LC11:
	.string	" t5 : %016lx t6 : %016lx\n"
	.text
	.align	2
	.globl	show_regs
	.type	show_regs, @function
show_regs:
.LFB2:
	.loc 1 22 1
	.cfi_startproc
	addi	sp,sp,-32
	.cfi_def_cfa_offset 32
	sd	ra,24(sp)
	sd	s0,16(sp)
	.cfi_offset 1, -8
	.cfi_offset 8, -16
	addi	s0,sp,32
	.cfi_def_cfa 8, 0
	sd	a0,-24(s0)
	.loc 1 23 2
	ld	a5,-24(s0)
	ld	a4,0(a5)
	ld	a5,-24(s0)
	ld	a2,8(a5)
	ld	a5,-24(s0)
	ld	a5,16(a5)
	mv	a3,a5
	mv	a1,a4
	lla	a0,.LC1
	call	printk
	.loc 1 25 2
	ld	a5,-24(s0)
	ld	a4,24(a5)
	ld	a5,-24(s0)
	ld	a2,32(a5)
	ld	a5,-24(s0)
	ld	a5,40(a5)
	mv	a3,a5
	mv	a1,a4
	lla	a0,.LC2
	call	printk
	.loc 1 27 2
	ld	a5,-24(s0)
	ld	a4,48(a5)
	ld	a5,-24(s0)
	ld	a2,56(a5)
	ld	a5,-24(s0)
	ld	a5,64(a5)
	mv	a3,a5
	mv	a1,a4
	lla	a0,.LC3
	call	printk
	.loc 1 29 2
	ld	a5,-24(s0)
	ld	a4,72(a5)
	ld	a5,-24(s0)
	ld	a2,80(a5)
	ld	a5,-24(s0)
	ld	a5,88(a5)
	mv	a3,a5
	mv	a1,a4
	lla	a0,.LC4
	call	printk
	.loc 1 31 2
	ld	a5,-24(s0)
	ld	a4,96(a5)
	ld	a5,-24(s0)
	ld	a2,104(a5)
	ld	a5,-24(s0)
	ld	a5,112(a5)
	mv	a3,a5
	mv	a1,a4
	lla	a0,.LC5
	call	printk
	.loc 1 33 2
	ld	a5,-24(s0)
	ld	a4,120(a5)
	ld	a5,-24(s0)
	ld	a2,128(a5)
	ld	a5,-24(s0)
	ld	a5,136(a5)
	mv	a3,a5
	mv	a1,a4
	lla	a0,.LC6
	call	printk
	.loc 1 35 2
	ld	a5,-24(s0)
	ld	a4,144(a5)
	ld	a5,-24(s0)
	ld	a2,152(a5)
	ld	a5,-24(s0)
	ld	a5,160(a5)
	mv	a3,a5
	mv	a1,a4
	lla	a0,.LC7
	call	printk
	.loc 1 37 2
	ld	a5,-24(s0)
	ld	a4,168(a5)
	ld	a5,-24(s0)
	ld	a2,176(a5)
	ld	a5,-24(s0)
	ld	a5,184(a5)
	mv	a3,a5
	mv	a1,a4
	lla	a0,.LC8
	call	printk
	.loc 1 39 2
	ld	a5,-24(s0)
	ld	a4,192(a5)
	ld	a5,-24(s0)
	ld	a2,200(a5)
	ld	a5,-24(s0)
	ld	a5,208(a5)
	mv	a3,a5
	mv	a1,a4
	lla	a0,.LC9
	call	printk
	.loc 1 41 2
	ld	a5,-24(s0)
	ld	a4,216(a5)
	ld	a5,-24(s0)
	ld	a2,224(a5)
	ld	a5,-24(s0)
	ld	a5,232(a5)
	mv	a3,a5
	mv	a1,a4
	lla	a0,.LC10
	call	printk
	.loc 1 43 2
	ld	a5,-24(s0)
	ld	a4,240(a5)
	ld	a5,-24(s0)
	ld	a5,248(a5)
	mv	a2,a5
	mv	a1,a4
	lla	a0,.LC11
	call	printk
	.loc 1 45 1
	nop
	ld	ra,24(sp)
	.cfi_restore 1
	ld	s0,16(sp)
	.cfi_restore 8
	.cfi_def_cfa 2, 32
	addi	sp,sp,32
	.cfi_def_cfa_offset 0
	jr	ra
	.cfi_endproc
.LFE2:
	.size	show_regs, .-show_regs
	.section	.rodata
	.align	3
.LC12:
	.string	"Oops - %s\n"
	.align	3
.LC13:
	.string	"sstatus:0x%016lx  sbadaddr:0x%016lx  scause:0x%016lx\n"
	.text
	.align	2
	.type	do_trap_error, @function
do_trap_error:
.LFB3:
	.loc 1 48 1
	.cfi_startproc
	addi	sp,sp,-32
	.cfi_def_cfa_offset 32
	sd	ra,24(sp)
	sd	s0,16(sp)
	.cfi_offset 1, -8
	.cfi_offset 8, -16
	addi	s0,sp,32
	.cfi_def_cfa 8, 0
	sd	a0,-24(s0)
	sd	a1,-32(s0)
	.loc 1 49 2
	ld	a1,-32(s0)
	lla	a0,.LC12
	call	printk
	.loc 1 51 2
	ld	a0,-24(s0)
	call	show_regs
	.loc 1 52 2
	ld	a5,-24(s0)
	ld	a4,256(a5)
	ld	a5,-24(s0)
	ld	a2,264(a5)
	ld	a5,-24(s0)
	ld	a5,272(a5)
	mv	a3,a5
	mv	a1,a4
	lla	a0,.LC13
	call	printk
	.loc 1 54 2
	call	dump_stack
	.loc 1 55 2
	call	panic
	.loc 1 56 1
	nop
	ld	ra,24(sp)
	.cfi_restore 1
	ld	s0,16(sp)
	.cfi_restore 8
	.cfi_def_cfa 2, 32
	addi	sp,sp,32
	.cfi_def_cfa_offset 0
	jr	ra
	.cfi_endproc
.LFE3:
	.size	do_trap_error, .-do_trap_error
	.align	2
	.globl	do_trap_unknown
	.type	do_trap_unknown, @function
do_trap_unknown:
.LFB4:
	.loc 1 65 60
	.cfi_startproc
	addi	sp,sp,-32
	.cfi_def_cfa_offset 32
	sd	ra,24(sp)
	sd	s0,16(sp)
	.cfi_offset 1, -8
	.cfi_offset 8, -16
	addi	s0,sp,32
	.cfi_def_cfa 8, 0
	sd	a0,-24(s0)
	sd	a1,-32(s0)
	.loc 1 65 62
	ld	a1,-32(s0)
	ld	a0,-24(s0)
	call	do_trap_error
	.loc 1 65 95
	li	a5,0
	.loc 1 65 28
	mv	a0,a5
	ld	ra,24(sp)
	.cfi_restore 1
	ld	s0,16(sp)
	.cfi_restore 8
	.cfi_def_cfa 2, 32
	addi	sp,sp,32
	.cfi_def_cfa_offset 0
	jr	ra
	.cfi_endproc
.LFE4:
	.size	do_trap_unknown, .-do_trap_unknown
	.align	2
	.globl	do_trap_insn_misaligned
	.type	do_trap_insn_misaligned, @function
do_trap_insn_misaligned:
.LFB5:
	.loc 1 66 68
	.cfi_startproc
	addi	sp,sp,-32
	.cfi_def_cfa_offset 32
	sd	ra,24(sp)
	sd	s0,16(sp)
	.cfi_offset 1, -8
	.cfi_offset 8, -16
	addi	s0,sp,32
	.cfi_def_cfa 8, 0
	sd	a0,-24(s0)
	sd	a1,-32(s0)
	.loc 1 66 70
	ld	a1,-32(s0)
	ld	a0,-24(s0)
	call	do_trap_error
	.loc 1 66 103
	li	a5,0
	.loc 1 66 36
	mv	a0,a5
	ld	ra,24(sp)
	.cfi_restore 1
	ld	s0,16(sp)
	.cfi_restore 8
	.cfi_def_cfa 2, 32
	addi	sp,sp,32
	.cfi_def_cfa_offset 0
	jr	ra
	.cfi_endproc
.LFE5:
	.size	do_trap_insn_misaligned, .-do_trap_insn_misaligned
	.align	2
	.globl	do_trap_insn_fault
	.type	do_trap_insn_fault, @function
do_trap_insn_fault:
.LFB6:
	.loc 1 67 63
	.cfi_startproc
	addi	sp,sp,-32
	.cfi_def_cfa_offset 32
	sd	ra,24(sp)
	sd	s0,16(sp)
	.cfi_offset 1, -8
	.cfi_offset 8, -16
	addi	s0,sp,32
	.cfi_def_cfa 8, 0
	sd	a0,-24(s0)
	sd	a1,-32(s0)
	.loc 1 67 65
	ld	a1,-32(s0)
	ld	a0,-24(s0)
	call	do_trap_error
	.loc 1 67 98
	li	a5,0
	.loc 1 67 31
	mv	a0,a5
	ld	ra,24(sp)
	.cfi_restore 1
	ld	s0,16(sp)
	.cfi_restore 8
	.cfi_def_cfa 2, 32
	addi	sp,sp,32
	.cfi_def_cfa_offset 0
	jr	ra
	.cfi_endproc
.LFE6:
	.size	do_trap_insn_fault, .-do_trap_insn_fault
	.align	2
	.globl	do_trap_insn_illegal
	.type	do_trap_insn_illegal, @function
do_trap_insn_illegal:
.LFB7:
	.loc 1 68 65
	.cfi_startproc
	addi	sp,sp,-32
	.cfi_def_cfa_offset 32
	sd	ra,24(sp)
	sd	s0,16(sp)
	.cfi_offset 1, -8
	.cfi_offset 8, -16
	addi	s0,sp,32
	.cfi_def_cfa 8, 0
	sd	a0,-24(s0)
	sd	a1,-32(s0)
	.loc 1 68 67
	ld	a1,-32(s0)
	ld	a0,-24(s0)
	call	do_trap_error
	.loc 1 68 100
	li	a5,0
	.loc 1 68 33
	mv	a0,a5
	ld	ra,24(sp)
	.cfi_restore 1
	ld	s0,16(sp)
	.cfi_restore 8
	.cfi_def_cfa 2, 32
	addi	sp,sp,32
	.cfi_def_cfa_offset 0
	jr	ra
	.cfi_endproc
.LFE7:
	.size	do_trap_insn_illegal, .-do_trap_insn_illegal
	.align	2
	.globl	do_trap_load_misaligned
	.type	do_trap_load_misaligned, @function
do_trap_load_misaligned:
.LFB8:
	.loc 1 69 68
	.cfi_startproc
	addi	sp,sp,-32
	.cfi_def_cfa_offset 32
	sd	ra,24(sp)
	sd	s0,16(sp)
	.cfi_offset 1, -8
	.cfi_offset 8, -16
	addi	s0,sp,32
	.cfi_def_cfa 8, 0
	sd	a0,-24(s0)
	sd	a1,-32(s0)
	.loc 1 69 70
	ld	a1,-32(s0)
	ld	a0,-24(s0)
	call	do_trap_error
	.loc 1 69 103
	li	a5,0
	.loc 1 69 36
	mv	a0,a5
	ld	ra,24(sp)
	.cfi_restore 1
	ld	s0,16(sp)
	.cfi_restore 8
	.cfi_def_cfa 2, 32
	addi	sp,sp,32
	.cfi_def_cfa_offset 0
	jr	ra
	.cfi_endproc
.LFE8:
	.size	do_trap_load_misaligned, .-do_trap_load_misaligned
	.align	2
	.globl	do_trap_load_fault
	.type	do_trap_load_fault, @function
do_trap_load_fault:
.LFB9:
	.loc 1 70 63
	.cfi_startproc
	addi	sp,sp,-32
	.cfi_def_cfa_offset 32
	sd	ra,24(sp)
	sd	s0,16(sp)
	.cfi_offset 1, -8
	.cfi_offset 8, -16
	addi	s0,sp,32
	.cfi_def_cfa 8, 0
	sd	a0,-24(s0)
	sd	a1,-32(s0)
	.loc 1 70 65
	ld	a1,-32(s0)
	ld	a0,-24(s0)
	call	do_trap_error
	.loc 1 70 98
	li	a5,0
	.loc 1 70 31
	mv	a0,a5
	ld	ra,24(sp)
	.cfi_restore 1
	ld	s0,16(sp)
	.cfi_restore 8
	.cfi_def_cfa 2, 32
	addi	sp,sp,32
	.cfi_def_cfa_offset 0
	jr	ra
	.cfi_endproc
.LFE9:
	.size	do_trap_load_fault, .-do_trap_load_fault
	.align	2
	.globl	do_trap_store_misaligned
	.type	do_trap_store_misaligned, @function
do_trap_store_misaligned:
.LFB10:
	.loc 1 71 69
	.cfi_startproc
	addi	sp,sp,-32
	.cfi_def_cfa_offset 32
	sd	ra,24(sp)
	sd	s0,16(sp)
	.cfi_offset 1, -8
	.cfi_offset 8, -16
	addi	s0,sp,32
	.cfi_def_cfa 8, 0
	sd	a0,-24(s0)
	sd	a1,-32(s0)
	.loc 1 71 71
	ld	a1,-32(s0)
	ld	a0,-24(s0)
	call	do_trap_error
	.loc 1 71 104
	li	a5,0
	.loc 1 71 37
	mv	a0,a5
	ld	ra,24(sp)
	.cfi_restore 1
	ld	s0,16(sp)
	.cfi_restore 8
	.cfi_def_cfa 2, 32
	addi	sp,sp,32
	.cfi_def_cfa_offset 0
	jr	ra
	.cfi_endproc
.LFE10:
	.size	do_trap_store_misaligned, .-do_trap_store_misaligned
	.align	2
	.globl	do_trap_store_fault
	.type	do_trap_store_fault, @function
do_trap_store_fault:
.LFB11:
	.loc 1 72 64
	.cfi_startproc
	addi	sp,sp,-32
	.cfi_def_cfa_offset 32
	sd	ra,24(sp)
	sd	s0,16(sp)
	.cfi_offset 1, -8
	.cfi_offset 8, -16
	addi	s0,sp,32
	.cfi_def_cfa 8, 0
	sd	a0,-24(s0)
	sd	a1,-32(s0)
	.loc 1 72 66
	ld	a1,-32(s0)
	ld	a0,-24(s0)
	call	do_trap_error
	.loc 1 72 99
	li	a5,0
	.loc 1 72 32
	mv	a0,a5
	ld	ra,24(sp)
	.cfi_restore 1
	ld	s0,16(sp)
	.cfi_restore 8
	.cfi_def_cfa 2, 32
	addi	sp,sp,32
	.cfi_def_cfa_offset 0
	jr	ra
	.cfi_endproc
.LFE11:
	.size	do_trap_store_fault, .-do_trap_store_fault
	.align	2
	.globl	do_trap_ecall_u
	.type	do_trap_ecall_u, @function
do_trap_ecall_u:
.LFB12:
	.loc 1 73 60
	.cfi_startproc
	addi	sp,sp,-32
	.cfi_def_cfa_offset 32
	sd	ra,24(sp)
	sd	s0,16(sp)
	.cfi_offset 1, -8
	.cfi_offset 8, -16
	addi	s0,sp,32
	.cfi_def_cfa 8, 0
	sd	a0,-24(s0)
	sd	a1,-32(s0)
	.loc 1 73 62
	ld	a1,-32(s0)
	ld	a0,-24(s0)
	call	do_trap_error
	.loc 1 73 95
	li	a5,0
	.loc 1 73 28
	mv	a0,a5
	ld	ra,24(sp)
	.cfi_restore 1
	ld	s0,16(sp)
	.cfi_restore 8
	.cfi_def_cfa 2, 32
	addi	sp,sp,32
	.cfi_def_cfa_offset 0
	jr	ra
	.cfi_endproc
.LFE12:
	.size	do_trap_ecall_u, .-do_trap_ecall_u
	.align	2
	.globl	do_trap_ecall_s
	.type	do_trap_ecall_s, @function
do_trap_ecall_s:
.LFB13:
	.loc 1 74 60
	.cfi_startproc
	addi	sp,sp,-32
	.cfi_def_cfa_offset 32
	sd	ra,24(sp)
	sd	s0,16(sp)
	.cfi_offset 1, -8
	.cfi_offset 8, -16
	addi	s0,sp,32
	.cfi_def_cfa 8, 0
	sd	a0,-24(s0)
	sd	a1,-32(s0)
	.loc 1 74 62
	ld	a1,-32(s0)
	ld	a0,-24(s0)
	call	do_trap_error
	.loc 1 74 95
	li	a5,0
	.loc 1 74 28
	mv	a0,a5
	ld	ra,24(sp)
	.cfi_restore 1
	ld	s0,16(sp)
	.cfi_restore 8
	.cfi_def_cfa 2, 32
	addi	sp,sp,32
	.cfi_def_cfa_offset 0
	jr	ra
	.cfi_endproc
.LFE13:
	.size	do_trap_ecall_s, .-do_trap_ecall_s
	.align	2
	.globl	do_trap_break
	.type	do_trap_break, @function
do_trap_break:
.LFB14:
	.loc 1 75 58
	.cfi_startproc
	addi	sp,sp,-32
	.cfi_def_cfa_offset 32
	sd	ra,24(sp)
	sd	s0,16(sp)
	.cfi_offset 1, -8
	.cfi_offset 8, -16
	addi	s0,sp,32
	.cfi_def_cfa 8, 0
	sd	a0,-24(s0)
	sd	a1,-32(s0)
	.loc 1 75 60
	ld	a1,-32(s0)
	ld	a0,-24(s0)
	call	do_trap_error
	.loc 1 75 93
	li	a5,0
	.loc 1 75 26
	mv	a0,a5
	ld	ra,24(sp)
	.cfi_restore 1
	ld	s0,16(sp)
	.cfi_restore 8
	.cfi_def_cfa 2, 32
	addi	sp,sp,32
	.cfi_def_cfa_offset 0
	jr	ra
	.cfi_endproc
.LFE14:
	.size	do_trap_break, .-do_trap_break
	.align	2
	.globl	do_page_fault
	.type	do_page_fault, @function
do_page_fault:
.LFB15:
	.loc 1 76 58
	.cfi_startproc
	addi	sp,sp,-32
	.cfi_def_cfa_offset 32
	sd	ra,24(sp)
	sd	s0,16(sp)
	.cfi_offset 1, -8
	.cfi_offset 8, -16
	addi	s0,sp,32
	.cfi_def_cfa 8, 0
	sd	a0,-24(s0)
	sd	a1,-32(s0)
	.loc 1 76 60
	ld	a1,-32(s0)
	ld	a0,-24(s0)
	call	do_trap_error
	.loc 1 76 93
	li	a5,0
	.loc 1 76 26
	mv	a0,a5
	ld	ra,24(sp)
	.cfi_restore 1
	ld	s0,16(sp)
	.cfi_restore 8
	.cfi_def_cfa 2, 32
	addi	sp,sp,32
	.cfi_def_cfa_offset 0
	jr	ra
	.cfi_endproc
.LFE15:
	.size	do_page_fault, .-do_page_fault
	.section	.rodata
	.align	3
.LC14:
	.string	"Instruction address misaligned"
	.align	3
.LC15:
	.string	"Instruction access fault"
	.align	3
.LC16:
	.string	"Illegal instruction"
	.align	3
.LC17:
	.string	"Breakpoint"
	.align	3
.LC18:
	.string	"Load address misaligned"
	.align	3
.LC19:
	.string	"Load access fault"
	.align	3
.LC20:
	.string	"Store/AMO address misaligned"
	.align	3
.LC21:
	.string	"Store/AMO access fault"
	.align	3
.LC22:
	.string	"Environment call from U-mode"
	.align	3
.LC23:
	.string	"Environment call from S-mode"
	.align	3
.LC24:
	.string	"unknown 10"
	.align	3
.LC25:
	.string	"unknown 11"
	.align	3
.LC26:
	.string	"Instruction page fault"
	.align	3
.LC27:
	.string	"Load page fault"
	.align	3
.LC28:
	.string	"unknown 14"
	.align	3
.LC29:
	.string	"Store/AMO page fault"
	.align	3
	.type	fault_info, @object
	.size	fault_info, 256
fault_info:
	.dword	do_trap_insn_misaligned
	.dword	.LC14
	.dword	do_trap_insn_fault
	.dword	.LC15
	.dword	do_trap_insn_illegal
	.dword	.LC16
	.dword	do_trap_break
	.dword	.LC17
	.dword	do_trap_load_misaligned
	.dword	.LC18
	.dword	do_trap_load_fault
	.dword	.LC19
	.dword	do_trap_store_misaligned
	.dword	.LC20
	.dword	do_trap_store_fault
	.dword	.LC21
	.dword	do_trap_ecall_u
	.dword	.LC22
	.dword	do_trap_ecall_s
	.dword	.LC23
	.dword	do_trap_unknown
	.dword	.LC24
	.dword	do_trap_unknown
	.dword	.LC25
	.dword	do_page_fault
	.dword	.LC26
	.dword	do_page_fault
	.dword	.LC27
	.dword	do_trap_unknown
	.dword	.LC28
	.dword	do_page_fault
	.dword	.LC29
	.text
	.align	2
	.type	ec_to_fault_info, @function
ec_to_fault_info:
.LFB16:
	.loc 1 98 1
	.cfi_startproc
	addi	sp,sp,-32
	.cfi_def_cfa_offset 32
	sd	s0,24(sp)
	.cfi_offset 8, -8
	addi	s0,sp,32
	.cfi_def_cfa 8, 0
	mv	a5,a0
	sw	a5,-20(s0)
	.loc 1 99 30
	lwu	a5,-20(s0)
	andi	a5,a5,15
	.loc 1 99 20
	slli	a4,a5,4
	lla	a5,fault_info
	add	a5,a4,a5
	.loc 1 100 1
	mv	a0,a5
	ld	s0,24(sp)
	.cfi_restore 8
	.cfi_def_cfa 2, 32
	addi	sp,sp,32
	.cfi_def_cfa_offset 0
	jr	ra
	.cfi_endproc
.LFE16:
	.size	ec_to_fault_info, .-ec_to_fault_info
	.section	.rodata
	.align	3
.LC30:
	.string	"%s, scause:0x%lx\n"
	.text
	.align	2
	.globl	do_exception
	.type	do_exception, @function
do_exception:
.LFB17:
	.loc 1 103 1
	.cfi_startproc
	addi	sp,sp,-48
	.cfi_def_cfa_offset 48
	sd	ra,40(sp)
	sd	s0,32(sp)
	.cfi_offset 1, -8
	.cfi_offset 8, -16
	addi	s0,sp,48
	.cfi_def_cfa 8, 0
	sd	a0,-40(s0)
	sd	a1,-48(s0)
	.loc 1 106 2
	ld	a2,-48(s0)
	lla	a1,__func__.1635
	lla	a0,.LC30
	call	printk
	.loc 1 108 6
	ld	a5,-48(s0)
	.loc 1 108 5
	bltz	a5,.L31
	.loc 1 111 9
	ld	a5,-48(s0)
	sext.w	a5,a5
	mv	a0,a5
	call	ec_to_fault_info
	sd	a0,-24(s0)
	.loc 1 113 11
	ld	a5,-24(s0)
	ld	a4,0(a5)
	.loc 1 113 8
	ld	a5,-24(s0)
	ld	a5,8(a5)
	mv	a1,a5
	ld	a0,-40(s0)
	jalr	a4
.LVL0:
.L31:
	.loc 1 116 1
	ld	ra,40(sp)
	.cfi_restore 1
	ld	s0,32(sp)
	.cfi_restore 8
	.cfi_def_cfa 2, 48
	addi	sp,sp,48
	.cfi_def_cfa_offset 0
	jr	ra
	.cfi_endproc
.LFE17:
	.size	do_exception, .-do_exception
	.section	.rodata
	.align	3
.LC31:
	.string	"stvec=0x%x, 0x%x\n"
	.text
	.align	2
	.globl	trap_init
	.type	trap_init, @function
trap_init:
.LFB18:
	.loc 1 119 1
	.cfi_startproc
	addi	sp,sp,-48
	.cfi_def_cfa_offset 48
	sd	ra,40(sp)
	sd	s0,32(sp)
	.cfi_offset 1, -8
	.cfi_offset 8, -16
	addi	s0,sp,48
	.cfi_def_cfa 8, 0
.LBB2:
	.loc 1 120 19
	sd	zero,-24(s0)
	.loc 1 120 45
	ld	a5,-24(s0)
#APP
# 120 "src/trap.c" 1
	csrw sscratch, a5
# 0 "" 2
#NO_APP
.LBE2:
.LBB3:
	.loc 1 122 19
	lla	a5,do_exception_vector
	sd	a5,-32(s0)
	.loc 1 122 63
	ld	a5,-32(s0)
#APP
# 122 "src/trap.c" 1
	csrw stvec, a5
# 0 "" 2
#NO_APP
.LBE3:
.LBB4:
	.loc 1 123 62
#APP
# 123 "src/trap.c" 1
	csrr a5, stvec
# 0 "" 2
#NO_APP
	mv	ra,a5
	.loc 1 123 132
	mv	a5,ra
.LBE4:
	.loc 1 123 2
	lla	a2,do_exception_vector
	mv	a1,a5
	lla	a0,.LC31
	call	printk
.LBB5:
	.loc 1 125 19
	li	a5,-1
	sd	a5,-40(s0)
	.loc 1 125 46
	ld	a5,-40(s0)
#APP
# 125 "src/trap.c" 1
	csrw sie, a5
# 0 "" 2
#NO_APP
.LBE5:
	.loc 1 126 1
	nop
	ld	ra,40(sp)
	.cfi_restore 1
	ld	s0,32(sp)
	.cfi_restore 8
	.cfi_def_cfa 2, 48
	addi	sp,sp,48
	.cfi_def_cfa_offset 0
	jr	ra
	.cfi_endproc
.LFE18:
	.size	trap_init, .-trap_init
	.section	.rodata
	.align	3
	.type	__func__.1635, @object
	.size	__func__.1635, 13
__func__.1635:
	.string	"do_exception"
	.text
.Letext0:
	.file 2 "include/asm/ptregs.h"
	.section	.note.GNU-stack,"",@progbits
